; Function Attrs: mustprogress ssp uwtable
define hidden void @_ZN6open3d4core30pybind_cuda_utils_declarationsERN8pybind117module_E(ptr noundef nonnull align 8 dereferenceable(8) %0) local_unnamed_addr #5 personality ptr @__gxx_personality_v0 {
  %2 = alloca %"class.pybind11::module_", align 8
  call void @llvm.lifetime.start.p0(i64 8, ptr nonnull %2) #28
  call void @_ZN8pybind117module_13def_submoduleEPKcS2_(ptr dead_on_unwind nonnull writable sret(%"class.pybind11::module_") align 8 %2, ptr noundef nonnull align 8 dereferenceable(8) %0, ptr noundef nonnull @.str, ptr noundef null)
  %3 = load ptr, ptr %2, align 8, !tbaa !115
  %.not.i.i.i = icmp eq ptr %3, null
  br i1 %.not.i.i.i, label %_ZN8pybind116objectD2Ev.exit, label %4

4:                                                ; preds = %1
  %5 = load i64, ptr %3, align 8, !tbaa !114
  %6 = and i64 %5, 2147483648
  %.not2.i.i.i = icmp eq i64 %6, 0
  br i1 %.not2.i.i.i, label %7, label %_ZN8pybind116objectD2Ev.exit

7:                                                ; preds = %4
  %8 = add nsw i64 %5, -1
  store i64 %8, ptr %3, align 8, !tbaa !114
  %9 = icmp eq i64 %8, 0
  br i1 %9, label %10, label %_ZN8pybind116objectD2Ev.exit

10:                                               ; preds = %7
  invoke void @_Py_Dealloc(ptr noundef nonnull %3)
          to label %_ZN8pybind116objectD2Ev.exit unwind label %11

11:                                               ; preds = %10
  %12 = landingpad { ptr, i32 }
          catch ptr null
  %13 = extractvalue { ptr, i32 } %12, 0
  call void @__clang_call_terminate(ptr %13) #29
  unreachable

_ZN8pybind116objectD2Ev.exit:                     ; preds = %1, %4, %7, %10
  call void @llvm.lifetime.end.p0(i64 8, ptr nonnull %2) #28
  ret void
}